; Function Attrs: nounwind uwtable
define ptr @jpeg_read_coefficients(ptr noundef %0) local_unnamed_addr #0 {
  %2 = getelementptr inbounds nuw i8, ptr %0, i64 544
  %3 = load ptr, ptr %2, align 8, !tbaa !3
  %4 = getelementptr inbounds nuw i8, ptr %3, i64 20
  %5 = load i32, ptr %4, align 4, !tbaa !30
  %.not = icmp eq i32 %5, 0
  br i1 %.not, label %10, label %6

6:                                                ; preds = %1
  %7 = load ptr, ptr %0, align 8, !tbaa !32
  %8 = getelementptr inbounds nuw i8, ptr %7, i64 40
  store i32 47, ptr %8, align 8, !tbaa !33
  %9 = load ptr, ptr %7, align 8, !tbaa !36
  tail call void %9(ptr noundef nonnull %0) #2
  br label %10

10:                                               ; preds = %6, %1
  %11 = getelementptr inbounds nuw i8, ptr %0, i64 36
  %12 = load i32, ptr %11, align 4, !tbaa !37
  switch i32 %12, label %98 [
    i32 202, label %13
    i32 209, label %.preheader
    i32 210, label %89
    i32 207, label %89
  ]

13:                                               ; preds = %10
  %14 = getelementptr inbounds nuw i8, ptr %0, i64 88
  store i32 1, ptr %14, align 8, !tbaa !38
  %15 = getelementptr inbounds nuw i8, ptr %0, i64 316
  %16 = load i32, ptr %15, align 4, !tbaa !39
  %.not.i = icmp eq i32 %16, 0
  br i1 %.not.i, label %18, label %17

17:                                               ; preds = %13
  tail call void @jinit_arith_decoder(ptr noundef nonnull %0) #2
  br label %23

18:                                               ; preds = %13
  %19 = getelementptr inbounds nuw i8, ptr %0, i64 312
  %20 = load i32, ptr %19, align 8, !tbaa !40
  %.not23.i = icmp eq i32 %20, 0
  br i1 %.not23.i, label %22, label %21

21:                                               ; preds = %18
  tail call void @jinit_phuff_decoder(ptr noundef nonnull %0) #2
  br label %23

22:                                               ; preds = %18
  tail call void @jinit_huff_decoder(ptr noundef nonnull %0) #2
  br label %23

23:                                               ; preds = %22, %21, %17
  %24 = getelementptr inbounds nuw i8, ptr %0, i64 296
  %25 = load i32, ptr %24, align 8, !tbaa !41
  %26 = icmp eq i32 %25, 12
  br i1 %26, label %27, label %28

27:                                               ; preds = %23
  tail call void @j12init_d_coef_controller(ptr noundef nonnull %0, i32 noundef 1) #2
  br label %29

28:                                               ; preds = %23
  tail call void @jinit_d_coef_controller(ptr noundef nonnull %0, i32 noundef 1) #2
  br label %29

29:                                               ; preds = %28, %27
  %30 = getelementptr inbounds nuw i8, ptr %0, i64 8
  %31 = load ptr, ptr %30, align 8, !tbaa !42
  %32 = getelementptr inbounds nuw i8, ptr %31, i64 48
  %33 = load ptr, ptr %32, align 8, !tbaa !43
  tail call void %33(ptr noundef nonnull %0) #2
  %34 = getelementptr inbounds nuw i8, ptr %0, i64 576
  %35 = load ptr, ptr %34, align 8, !tbaa !45
  %36 = getelementptr inbounds nuw i8, ptr %35, i64 16
  %37 = load ptr, ptr %36, align 8, !tbaa !46
  tail call void %37(ptr noundef nonnull %0) #2
  %38 = getelementptr inbounds nuw i8, ptr %0, i64 16
  %39 = load ptr, ptr %38, align 8, !tbaa !48
  %.not24.i = icmp eq ptr %39, null
  br i1 %.not24.i, label %.thread49, label %40

40:                                               ; preds = %29
  %41 = getelementptr inbounds nuw i8, ptr %0, i64 312
  %42 = load i32, ptr %41, align 8, !tbaa !40
  %.not25.i = icmp eq i32 %42, 0
  br i1 %.not25.i, label %48, label %43

43:                                               ; preds = %40
  %44 = getelementptr inbounds nuw i8, ptr %0, i64 56
  %45 = load i32, ptr %44, align 8, !tbaa !49
  %46 = mul nsw i32 %45, 3
  %47 = add nsw i32 %46, 2
  br label %55

48:                                               ; preds = %40
  %49 = load ptr, ptr %34, align 8, !tbaa !45
  %50 = getelementptr inbounds nuw i8, ptr %49, i64 32
  %51 = load i32, ptr %50, align 8, !tbaa !50
  %.not26.i = icmp eq i32 %51, 0
  br i1 %.not26.i, label %55, label %52

52:                                               ; preds = %48
  %53 = getelementptr inbounds nuw i8, ptr %0, i64 56
  %54 = load i32, ptr %53, align 8, !tbaa !49
  br label %55

55:                                               ; preds = %52, %48, %43
  %.0.i = phi i32 [ %47, %43 ], [ %54, %52 ], [ 1, %48 ]
  %56 = getelementptr inbounds nuw i8, ptr %39, i64 8
  store i64 0, ptr %56, align 8, !tbaa !51
  %57 = getelementptr inbounds nuw i8, ptr %0, i64 420
  %58 = load i32, ptr %57, align 4, !tbaa !53
  %59 = zext i32 %58 to i64
  %60 = sext i32 %.0.i to i64
  %61 = mul nsw i64 %59, %60
  %62 = getelementptr inbounds nuw i8, ptr %39, i64 16
  store i64 %61, ptr %62, align 8, !tbaa !54
  %63 = getelementptr inbounds nuw i8, ptr %39, i64 24
  store i32 0, ptr %63, align 8, !tbaa !55
  %64 = getelementptr inbounds nuw i8, ptr %39, i64 28
  store i32 1, ptr %64, align 4, !tbaa !56
  br label %.thread49

.thread49:                                        ; preds = %55, %29
  store i32 209, ptr %11, align 4, !tbaa !37
  br label %.preheader

.preheader:                                       ; preds = %10, %.thread49
  %65 = getelementptr inbounds nuw i8, ptr %0, i64 16
  %66 = getelementptr inbounds nuw i8, ptr %0, i64 576
  %67 = getelementptr inbounds nuw i8, ptr %0, i64 420
  %.pre = load ptr, ptr %65, align 8, !tbaa !48
  br label %68

68:                                               ; preds = %.backedge, %.preheader
  %69 = phi ptr [ %.pre, %.preheader ], [ %77, %.backedge ]
  %.not40 = icmp eq ptr %69, null
  br i1 %.not40, label %72, label %70

70:                                               ; preds = %68
  %71 = load ptr, ptr %69, align 8, !tbaa !57
  tail call void %71(ptr noundef nonnull %0) #2
  br label %72

72:                                               ; preds = %70, %68
  %73 = load ptr, ptr %66, align 8, !tbaa !45
  %74 = load ptr, ptr %73, align 8, !tbaa !58
  %75 = tail call i32 %74(ptr noundef nonnull %0) #2
  switch i32 %75, label %76 [
    i32 0, label %.thread
    i32 2, label %.thread48
  ]

76:                                               ; preds = %72
  %77 = load ptr, ptr %65, align 8, !tbaa !48
  %.not41 = icmp ne ptr %77, null
  %78 = and i32 %75, -3
  %or.cond = icmp eq i32 %78, 1
  %or.cond44 = and i1 %or.cond, %.not41
  br i1 %or.cond44, label %79, label %.backedge

.backedge:                                        ; preds = %76, %85, %79
  br label %68

79:                                               ; preds = %76
  %80 = getelementptr inbounds nuw i8, ptr %77, i64 8
  %81 = load i64, ptr %80, align 8, !tbaa !51
  %82 = add nsw i64 %81, 1
  store i64 %82, ptr %80, align 8, !tbaa !51
  %83 = getelementptr inbounds nuw i8, ptr %77, i64 16
  %84 = load i64, ptr %83, align 8, !tbaa !54
  %.not42 = icmp slt i64 %82, %84
  br i1 %.not42, label %.backedge, label %85

85:                                               ; preds = %79
  %86 = load i32, ptr %67, align 4, !tbaa !53
  %87 = zext i32 %86 to i64
  %88 = add nsw i64 %84, %87
  store i64 %88, ptr %83, align 8, !tbaa !54
  br label %.backedge

.thread48:                                        ; preds = %72
  store i32 210, ptr %11, align 4, !tbaa !37
  br label %89

89:                                               ; preds = %10, %10, %.thread48
  %90 = phi i32 [ 210, %.thread48 ], [ %12, %10 ], [ %12, %10 ]
  %91 = getelementptr inbounds nuw i8, ptr %0, i64 88
  %92 = load i32, ptr %91, align 8, !tbaa !38
  %.not43 = icmp eq i32 %92, 0
  br i1 %.not43, label %98, label %93

93:                                               ; preds = %89
  %94 = getelementptr inbounds nuw i8, ptr %0, i64 560
  %95 = load ptr, ptr %94, align 8, !tbaa !59
  %96 = getelementptr inbounds nuw i8, ptr %95, i64 64
  %97 = load ptr, ptr %96, align 8, !tbaa !60
  br label %.thread

98:                                               ; preds = %10, %89
  %99 = phi i32 [ %90, %89 ], [ %12, %10 ]
  %100 = load ptr, ptr %0, align 8, !tbaa !32
  %101 = getelementptr inbounds nuw i8, ptr %100, i64 40
  store i32 20, ptr %101, align 8, !tbaa !33
  %102 = getelementptr inbounds nuw i8, ptr %100, i64 44
  store i32 %99, ptr %102, align 4, !tbaa !63
  %103 = load ptr, ptr %0, align 8, !tbaa !32
  %104 = load ptr, ptr %103, align 8, !tbaa !36
  tail call void %104(ptr noundef nonnull %0) #2
  br label %.thread

.thread:                                          ; preds = %72, %98, %93
  %.2 = phi ptr [ %97, %93 ], [ null, %98 ], [ null, %72 ]
  ret ptr %.2
}